; Function Attrs: mustprogress nofree norecurse nosync nounwind memory(readwrite, inaccessiblemem: none) uwtable
define hidden void @_ZN18mpz_matrix_manager9swap_rowsER10mpz_matrixjj(ptr noundef nonnull readonly align 8 captures(none) dereferenceable(16) %0, i32 noundef %1, i32 noundef %2) local_unnamed_addr #7 align 2 {
  %.not = icmp eq i32 %1, %2
  br i1 %.not, label %.loopexit, label %.preheader

.preheader:                                       ; preds = %3
  %4 = getelementptr inbounds nuw i8, ptr %0, i64 4
  %5 = load i32, ptr %4, align 4, !tbaa !15
  %.not13 = icmp eq i32 %5, 0
  br i1 %.not13, label %.loopexit, label %.lr.ph

.lr.ph:                                           ; preds = %.preheader
  %6 = getelementptr inbounds nuw i8, ptr %0, i64 8
  br label %7

7:                                                ; preds = %.lr.ph, %7
  %8 = phi i32 [ %5, %.lr.ph ], [ %44, %7 ]
  %.012 = phi i32 [ 0, %.lr.ph ], [ %43, %7 ]
  %9 = load ptr, ptr %6, align 8, !tbaa !10
  %10 = mul i32 %8, %1
  %11 = add i32 %10, %.012
  %12 = zext i32 %11 to i64
  %13 = getelementptr inbounds nuw %class.mpz, ptr %9, i64 %12
  %14 = mul i32 %8, %2
  %15 = add i32 %14, %.012
  %16 = zext i32 %15 to i64
  %17 = getelementptr inbounds nuw %class.mpz, ptr %9, i64 %16
  %18 = load i32, ptr %13, align 4, !tbaa !33
  %19 = load i32, ptr %17, align 4, !tbaa !33
  store i32 %19, ptr %13, align 4, !tbaa !33
  store i32 %18, ptr %17, align 4, !tbaa !33
  %20 = getelementptr inbounds nuw i8, ptr %13, i64 8
  %21 = getelementptr inbounds nuw i8, ptr %17, i64 8
  %22 = load ptr, ptr %20, align 8, !tbaa !39
  %23 = load ptr, ptr %21, align 8, !tbaa !39
  store ptr %23, ptr %20, align 8, !tbaa !39
  store ptr %22, ptr %21, align 8, !tbaa !39
  %24 = getelementptr inbounds nuw i8, ptr %13, i64 4
  %25 = load i8, ptr %24, align 4
  %26 = and i8 %25, 2
  %27 = getelementptr inbounds nuw i8, ptr %17, i64 4
  %28 = load i8, ptr %27, align 4
  %29 = and i8 %28, 2
  %30 = and i8 %25, -3
  %31 = or disjoint i8 %29, %30
  store i8 %31, ptr %24, align 4
  %32 = load i8, ptr %27, align 4
  %33 = and i8 %32, -3
  %34 = or disjoint i8 %33, %26
  store i8 %34, ptr %27, align 4
  %35 = load i8, ptr %24, align 4
  %36 = and i8 %35, 1
  %37 = and i8 %32, 1
  %38 = and i8 %35, -2
  %39 = or disjoint i8 %38, %37
  store i8 %39, ptr %24, align 4
  %40 = load i8, ptr %27, align 4
  %41 = and i8 %40, -2
  %42 = or disjoint i8 %41, %36
  store i8 %42, ptr %27, align 4
  %43 = add nuw i32 %.012, 1
  %44 = load i32, ptr %4, align 4, !tbaa !15
  %45 = icmp ult i32 %43, %44
  br i1 %45, label %7, label %.loopexit, !llvm.loop !40

.loopexit:                                        ; preds = %7, %.preheader, %3
  ret void
}